; Function Attrs: nounwind uwtable
define hidden ptr @SDL_GetCameraName_REAL(i32 noundef %0) local_unnamed_addr #1 {
  %2 = tail call fastcc ptr @ObtainPhysicalCamera(i32 noundef %0)
  %.not = icmp eq ptr %2, null
  br i1 %.not, label %ReleaseCamera.exit, label %3

3:                                                ; preds = %1
  %4 = getelementptr inbounds nuw i8, ptr %2, i64 8
  %5 = load ptr, ptr %4, align 8
  %6 = tail call ptr @SDL_GetPersistentString(ptr noundef %5) #11
  %7 = load ptr, ptr %2, align 8
  tail call void @SDL_UnlockMutex_REAL(ptr noundef %7) #11
  %8 = getelementptr inbounds nuw i8, ptr %2, i64 20
  %9 = tail call i32 @SDL_AddAtomicInt_REAL(ptr noundef nonnull %8, i32 noundef -1) #11
  %10 = icmp eq i32 %9, 1
  br i1 %10, label %11, label %ReleaseCamera.exit

11:                                               ; preds = %3
  %12 = load ptr, ptr getelementptr inbounds nuw (i8, ptr @camera_driver, i64 88), align 8
  tail call void @SDL_LockRWLockForWriting_REAL(ptr noundef %12) #11
  %13 = load ptr, ptr getelementptr inbounds nuw (i8, ptr @camera_driver, i64 96), align 8
  %14 = getelementptr inbounds nuw i8, ptr %2, i64 108
  %15 = load i32, ptr %14, align 4
  %16 = zext i32 %15 to i64
  %17 = inttoptr i64 %16 to ptr
  %18 = tail call zeroext i1 @SDL_RemoveFromHashTable(ptr noundef %13, ptr noundef %17) #11
  br i1 %18, label %19, label %21

19:                                               ; preds = %11
  %20 = tail call i32 @SDL_AddAtomicInt_REAL(ptr noundef nonnull getelementptr inbounds nuw (i8, ptr @camera_driver, i64 128), i32 noundef -1) #11
  br label %21

21:                                               ; preds = %19, %11
  %22 = load ptr, ptr getelementptr inbounds nuw (i8, ptr @camera_driver, i64 88), align 8
  tail call void @SDL_UnlockRWLock_REAL(ptr noundef %22) #11
  br label %ReleaseCamera.exit

ReleaseCamera.exit:                               ; preds = %21, %3, %1
  %.0 = phi ptr [ null, %1 ], [ %6, %3 ], [ %6, %21 ]
  ret ptr %.0
}